target datalayout = "e-m:e-p270:32:32-p271:32:32-p272:64:64-i64:64-i128:128-f80:128-n8:16:32:64-S128"
target triple = "x86_64-pc-linux-gnu"

%struct.uv__allocator_t = type { ptr, ptr, ptr, ptr }

@uv__allocator = internal global %struct.uv__allocator_t { ptr @malloc, ptr @realloc, ptr @calloc, ptr @free }, align 8

; Function Attrs: nounwind uwtable
define dso_local ptr @uv__malloc(i64 noundef %0) #0 {
  %2 = alloca ptr, align 8
  %3 = alloca i64, align 8
  store i64 %0, ptr %3, align 8, !tbaa !9
  %4 = load i64, ptr %3, align 8, !tbaa !9
  %5 = icmp ugt i64 %4, 0
  br i1 %5, label %6, label %10

6:                                                ; preds = %1
  %7 = load ptr, ptr @uv__allocator, align 8, !tbaa !11
  %8 = load i64, ptr %3, align 8, !tbaa !9
  %9 = call ptr %7(i64 noundef %8)
  store ptr %9, ptr %2, align 8
  br label %11

10:                                               ; preds = %1
  store ptr null, ptr %2, align 8
  br label %11

11:                                               ; preds = %10, %6
  %12 = load ptr, ptr %2, align 8
  ret ptr %12
}