; Function Attrs: nounwind uwtable
define dso_local ptr @uv__malloc(i64 noundef %0) local_unnamed_addr #0 {
  %.not = icmp eq i64 %0, 0
  br i1 %.not, label %5, label %2

2:                                                ; preds = %1
  %3 = load ptr, ptr @uv__allocator.0, align 8, !tbaa !4
  %4 = tail call ptr %3(i64 noundef %0) #26
  br label %5

5:                                                ; preds = %1, %2
  %.0 = phi ptr [ %4, %2 ], [ null, %1 ]
  ret ptr %.0
}